target datalayout = "e-m:e-p270:32:32-p271:32:32-p272:64:64-i64:64-i128:128-f80:128-n8:16:32:64-S128"
target triple = "x86_64-unknown-linux-gnu"

%"class.icu_75::CurrencyPluralInfo" = type <{ %"class.icu_75::UObject", ptr, ptr, ptr, i32, [4 x i8] }>
%"class.icu_75::UObject" = type { ptr }
%"class.icu_75::Locale" = type <{ %"class.icu_75::UObject", [12 x i8], [6 x i8], [4 x i8], [2 x i8], i32, [4 x i8], ptr, [157 x i8], [3 x i8], ptr, i8, [7 x i8] }>

@_ZTVN6icu_7518CurrencyPluralInfoE = unnamed_addr constant { [5 x ptr] } { [5 x ptr] [ptr null, ptr @_ZTIN6icu_7518CurrencyPluralInfoE, ptr @_ZN6icu_7518CurrencyPluralInfoD1Ev, ptr @_ZN6icu_7518CurrencyPluralInfoD0Ev, ptr @_ZNK6icu_7518CurrencyPluralInfo17getDynamicClassIDEv] }, align 8
@_ZTVN6icu_757UObjectE = external unnamed_addr constant { [5 x ptr] }, align 8

; Function Attrs: mustprogress nounwind uwtable
define linkonce_odr noundef signext i8 @_ZNK6icu_756Locale7isBogusEv(ptr noundef nonnull align 8 dereferenceable(217) %this) #0 comdat align 2 {
entry:
  %this.addr = alloca ptr, align 8
  store ptr %this, ptr %this.addr, align 8
  %this1 = load ptr, ptr %this.addr, align 8
  %fIsBogus = getelementptr inbounds %"class.icu_75::Locale", ptr %this1, i32 0, i32 11
  %0 = load i8, ptr %fIsBogus, align 8
  ret i8 %0
}

; Function Attrs: mustprogress nounwind uwtable
define internal noundef signext i8 @_ZL9U_FAILURE10UErrorCode(i32 noundef %code) #0 {
entry:
  %code.addr = alloca i32, align 4
  store i32 %code, ptr %code.addr, align 4
  %0 = load i32, ptr %code.addr, align 4
  %cmp = icmp sgt i32 %0, 0
  %conv = zext i1 %cmp to i8
  ret i8 %conv
}

; Function Attrs: mustprogress uwtable
define void @_ZN6icu_7518CurrencyPluralInfo10initializeERKNS_6LocaleER10UErrorCode(ptr noundef nonnull align 8 dereferenceable(36) %this, ptr noundef nonnull align 8 dereferenceable(217) %loc, ptr noundef nonnull align 4 dereferenceable(4) %status) #1 align 2 {
entry:
  %this.addr = alloca ptr, align 8
  %loc.addr = alloca ptr, align 8
  %status.addr = alloca ptr, align 8
  store ptr %this, ptr %this.addr, align 8
  store ptr %loc, ptr %loc.addr, align 8
  store ptr %status, ptr %status.addr, align 8
  %this1 = load ptr, ptr %this.addr, align 8
  %0 = load ptr, ptr %status.addr, align 8
  %1 = load i32, ptr %0, align 4
  %call = call noundef signext i8 @_ZL9U_FAILURE10UErrorCode(i32 noundef %1)
  %tobool = icmp ne i8 %call, 0
  br i1 %tobool, label %if.then, label %if.end

if.then:                                          ; preds = %entry
  br label %return

if.end:                                           ; preds = %entry
  %fLocale = getelementptr inbounds %"class.icu_75::CurrencyPluralInfo", ptr %this1, i32 0, i32 3
  %2 = load ptr, ptr %fLocale, align 8
  %isnull = icmp eq ptr %2, null
  br i1 %isnull, label %delete.end, label %delete.notnull

delete.notnull:                                   ; preds = %if.end
  %vtable = load ptr, ptr %2, align 8
  %vfn = getelementptr inbounds ptr, ptr %vtable, i64 1
  %3 = load ptr, ptr %vfn, align 8
  call void %3(ptr noundef nonnull align 8 dereferenceable(217) %2) #7
  br label %delete.end

delete.end:                                       ; preds = %delete.notnull, %if.end
  %fLocale2 = getelementptr inbounds %"class.icu_75::CurrencyPluralInfo", ptr %this1, i32 0, i32 3
  store ptr null, ptr %fLocale2, align 8
  %fPluralRules = getelementptr inbounds %"class.icu_75::CurrencyPluralInfo", ptr %this1, i32 0, i32 2
  %4 = load ptr, ptr %fPluralRules, align 8
  %isnull3 = icmp eq ptr %4, null
  br i1 %isnull3, label %delete.end7, label %delete.notnull4

delete.notnull4:                                  ; preds = %delete.end
  %vtable5 = load ptr, ptr %4, align 8
  %vfn6 = getelementptr inbounds ptr, ptr %vtable5, i64 1
  %5 = load ptr, ptr %vfn6, align 8
  call void %5(ptr noundef nonnull align 8 dereferenceable(28) %4) #7
  br label %delete.end7

delete.end7:                                      ; preds = %delete.notnull4, %delete.end
  %fPluralRules8 = getelementptr inbounds %"class.icu_75::CurrencyPluralInfo", ptr %this1, i32 0, i32 2
  store ptr null, ptr %fPluralRules8, align 8
  %6 = load ptr, ptr %loc.addr, align 8
  %call9 = call noundef ptr @_ZNK6icu_756Locale5cloneEv(ptr noundef nonnull align 8 dereferenceable(217) %6)
  %fLocale10 = getelementptr inbounds %"class.icu_75::CurrencyPluralInfo", ptr %this1, i32 0, i32 3
  store ptr %call9, ptr %fLocale10, align 8
  %fLocale11 = getelementptr inbounds %"class.icu_75::CurrencyPluralInfo", ptr %this1, i32 0, i32 3
  %7 = load ptr, ptr %fLocale11, align 8
  %cmp = icmp eq ptr %7, null
  br i1 %cmp, label %if.then12, label %if.end13

if.then12:                                        ; preds = %delete.end7
  %8 = load ptr, ptr %status.addr, align 8
  store i32 7, ptr %8, align 4
  br label %return

if.end13:                                         ; preds = %delete.end7
  %9 = load ptr, ptr %loc.addr, align 8
  %call14 = call noundef signext i8 @_ZNK6icu_756Locale7isBogusEv(ptr noundef nonnull align 8 dereferenceable(217) %9)
  %tobool15 = icmp ne i8 %call14, 0
  br i1 %tobool15, label %if.end20, label %land.lhs.true

land.lhs.true:                                    ; preds = %if.end13
  %fLocale16 = getelementptr inbounds %"class.icu_75::CurrencyPluralInfo", ptr %this1, i32 0, i32 3
  %10 = load ptr, ptr %fLocale16, align 8
  %call17 = call noundef signext i8 @_ZNK6icu_756Locale7isBogusEv(ptr noundef nonnull align 8 dereferenceable(217) %10)
  %tobool18 = icmp ne i8 %call17, 0
  br i1 %tobool18, label %if.then19, label %if.end20

if.then19:                                        ; preds = %land.lhs.true
  %11 = load ptr, ptr %status.addr, align 8
  store i32 7, ptr %11, align 4
  br label %return

if.end20:                                         ; preds = %land.lhs.true, %if.end13
  %12 = load ptr, ptr %loc.addr, align 8
  %13 = load ptr, ptr %status.addr, align 8
  %call21 = call noundef ptr @_ZN6icu_7511PluralRules9forLocaleERKNS_6LocaleER10UErrorCode(ptr noundef nonnull align 8 dereferenceable(217) %12, ptr noundef nonnull align 4 dereferenceable(4) %13)
  %fPluralRules22 = getelementptr inbounds %"class.icu_75::CurrencyPluralInfo", ptr %this1, i32 0, i32 2
  store ptr %call21, ptr %fPluralRules22, align 8
  %14 = load ptr, ptr %loc.addr, align 8
  %15 = load ptr, ptr %status.addr, align 8
  call void @_ZN6icu_7518CurrencyPluralInfo26setupCurrencyPluralPatternERKNS_6LocaleER10UErrorCode(ptr noundef nonnull align 8 dereferenceable(36) %this1, ptr noundef nonnull align 8 dereferenceable(217) %14, ptr noundef nonnull align 4 dereferenceable(4) %15)
  br label %return

return:                                           ; preds = %if.end20, %if.then19, %if.then12, %if.then
  ret void
}

; Function Attrs: mustprogress nounwind uwtable
define linkonce_odr void @_ZN6icu_757UObjectC2Ev(ptr noundef nonnull align 8 dereferenceable(8) %this) unnamed_addr #0 comdat align 2 {
entry:
  %this.addr = alloca ptr, align 8
  store ptr %this, ptr %this.addr, align 8
  %this1 = load ptr, ptr %this.addr, align 8
  store ptr getelementptr inbounds ({ [5 x ptr] }, ptr @_ZTVN6icu_757UObjectE, i32 0, i32 0, i32 2), ptr %this1, align 8
  ret void
}

; Function Attrs: mustprogress uwtable
define void @_ZN6icu_7518CurrencyPluralInfoC2ERKNS_6LocaleER10UErrorCode(ptr noundef nonnull align 8 dereferenceable(36) %this, ptr noundef nonnull align 8 dereferenceable(217) %locale, ptr noundef nonnull align 4 dereferenceable(4) %status) unnamed_addr #1 align 2 personality ptr @__gxx_personality_v0 {
entry:
  %this.addr = alloca ptr, align 8
  %locale.addr = alloca ptr, align 8
  %status.addr = alloca ptr, align 8
  %exn.slot = alloca ptr, align 8
  %ehselector.slot = alloca i32, align 4
  store ptr %this, ptr %this.addr, align 8
  store ptr %locale, ptr %locale.addr, align 8
  store ptr %status, ptr %status.addr, align 8
  %this1 = load ptr, ptr %this.addr, align 8
  call void @_ZN6icu_757UObjectC2Ev(ptr noundef nonnull align 8 dereferenceable(8) %this1) #7
  store ptr getelementptr inbounds ({ [5 x ptr] }, ptr @_ZTVN6icu_7518CurrencyPluralInfoE, i32 0, i32 0, i32 2), ptr %this1, align 8
  %fPluralCountToCurrencyUnitPattern = getelementptr inbounds %"class.icu_75::CurrencyPluralInfo", ptr %this1, i32 0, i32 1
  store ptr null, ptr %fPluralCountToCurrencyUnitPattern, align 8
  %fPluralRules = getelementptr inbounds %"class.icu_75::CurrencyPluralInfo", ptr %this1, i32 0, i32 2
  store ptr null, ptr %fPluralRules, align 8
  %fLocale = getelementptr inbounds %"class.icu_75::CurrencyPluralInfo", ptr %this1, i32 0, i32 3
  store ptr null, ptr %fLocale, align 8
  %fInternalStatus = getelementptr inbounds %"class.icu_75::CurrencyPluralInfo", ptr %this1, i32 0, i32 4
  store i32 0, ptr %fInternalStatus, align 8
  %0 = load ptr, ptr %locale.addr, align 8
  %1 = load ptr, ptr %status.addr, align 8
  invoke void @_ZN6icu_7518CurrencyPluralInfo10initializeERKNS_6LocaleER10UErrorCode(ptr noundef nonnull align 8 dereferenceable(36) %this1, ptr noundef nonnull align 8 dereferenceable(217) %0, ptr noundef nonnull align 4 dereferenceable(4) %1)
          to label %invoke.cont unwind label %lpad

invoke.cont:                                      ; preds = %entry
  ret void

lpad:                                             ; preds = %entry
  %2 = landingpad { ptr, i32 }
          cleanup
  %3 = extractvalue { ptr, i32 } %2, 0
  store ptr %3, ptr %exn.slot, align 8
  %4 = extractvalue { ptr, i32 } %2, 1
  store i32 %4, ptr %ehselector.slot, align 4
  call void @_ZN6icu_757UObjectD2Ev(ptr noundef nonnull align 8 dereferenceable(8) %this1) #7
  br label %eh.resume

eh.resume:                                        ; preds = %lpad
  %exn = load ptr, ptr %exn.slot, align 8
  %sel = load i32, ptr %ehselector.slot, align 4
  %lpad.val = insertvalue { ptr, i32 } poison, ptr %exn, 0
  %lpad.val2 = insertvalue { ptr, i32 } %lpad.val, i32 %sel, 1
  resume { ptr, i32 } %lpad.val2
}