; Function Attrs: mustprogress uwtable
define void @_ZN6icu_7518CurrencyPluralInfoC2ERKNS_6LocaleER10UErrorCode(ptr noundef nonnull align 8 dereferenceable(36) %this, ptr noundef nonnull align 8 dereferenceable(217) %locale, ptr noundef nonnull align 4 dereferenceable(4) %status) unnamed_addr #1 align 2 personality ptr @__gxx_personality_v0 {
entry:
  store ptr getelementptr inbounds ({ [5 x ptr] }, ptr @_ZTVN6icu_7518CurrencyPluralInfoE, i64 0, i32 0, i64 2), ptr %this, align 8
  %fPluralCountToCurrencyUnitPattern = getelementptr inbounds i8, ptr %this, i64 8
  %fPluralRules = getelementptr inbounds i8, ptr %this, i64 16
  %fLocale = getelementptr inbounds i8, ptr %this, i64 24
  tail call void @llvm.memset.p0.i64(ptr noundef nonnull align 8 dereferenceable(28) %fPluralCountToCurrencyUnitPattern, i8 0, i64 28, i1 false)
  %0 = load i32, ptr %status, align 4
  %cmp.i.i = icmp slt i32 %0, 1
  br i1 %cmp.i.i, label %delete.end7.i, label %invoke.cont

delete.end7.i:                                    ; preds = %entry
  tail call void @llvm.memset.p0.i64(ptr noundef nonnull align 8 dereferenceable(16) %fPluralRules, i8 0, i64 16, i1 false)
  %call9.i1 = invoke noundef ptr @_ZNK6icu_756Locale5cloneEv(ptr noundef nonnull align 8 dereferenceable(217) %locale)
          to label %call9.i.noexc unwind label %lpad

call9.i.noexc:                                    ; preds = %delete.end7.i
  store ptr %call9.i1, ptr %fLocale, align 8
  %cmp.i = icmp eq ptr %call9.i1, null
  br i1 %cmp.i, label %invoke.cont.sink.split, label %if.end13.i

if.end13.i:                                       ; preds = %call9.i.noexc
  %fIsBogus.i.i = getelementptr inbounds i8, ptr %locale, i64 216
  %1 = load i8, ptr %fIsBogus.i.i, align 8
  %tobool15.not.i = icmp eq i8 %1, 0
  br i1 %tobool15.not.i, label %land.lhs.true.i, label %if.end20.i

land.lhs.true.i:                                  ; preds = %if.end13.i
  %fIsBogus.i9.i = getelementptr inbounds i8, ptr %call9.i1, i64 216
  %2 = load i8, ptr %fIsBogus.i9.i, align 8
  %tobool18.not.i = icmp eq i8 %2, 0
  br i1 %tobool18.not.i, label %if.end20.i, label %invoke.cont.sink.split

if.end20.i:                                       ; preds = %land.lhs.true.i, %if.end13.i
  %call21.i2 = invoke noundef ptr @_ZN6icu_7511PluralRules9forLocaleERKNS_6LocaleER10UErrorCode(ptr noundef nonnull align 8 dereferenceable(217) %locale, ptr noundef nonnull align 4 dereferenceable(4) %status)
          to label %call21.i.noexc unwind label %lpad

call21.i.noexc:                                   ; preds = %if.end20.i
  store ptr %call21.i2, ptr %fPluralRules, align 8
  invoke void @_ZN6icu_7518CurrencyPluralInfo26setupCurrencyPluralPatternERKNS_6LocaleER10UErrorCode(ptr noundef nonnull align 8 dereferenceable(36) %this, ptr noundef nonnull align 8 dereferenceable(217) %locale, ptr noundef nonnull align 4 dereferenceable(4) %status)
          to label %invoke.cont unwind label %lpad

invoke.cont.sink.split:                           ; preds = %land.lhs.true.i, %call9.i.noexc
  store i32 7, ptr %status, align 4
  br label %invoke.cont

invoke.cont:                                      ; preds = %invoke.cont.sink.split, %entry, %call21.i.noexc
  ret void

lpad:                                             ; preds = %call21.i.noexc, %if.end20.i, %delete.end7.i
  %3 = landingpad { ptr, i32 }
          cleanup
  tail call void @_ZN6icu_757UObjectD2Ev(ptr noundef nonnull align 8 dereferenceable(8) %this) #10
  resume { ptr, i32 } %3
}